; Function Attrs: mustprogress nofree norecurse nosync nounwind sspstrong willreturn memory(read, inaccessiblemem: none) uwtable
define internal range(i64 1, 0) i64 @hash_enum_size(i64 noundef %0, i64 %1, i64 %2) #8 {
  %4 = inttoptr i64 %0 to ptr
  %5 = load i64, ptr %4, align 8, !tbaa !11
  %6 = and i64 %5, 32768
  %.not.i.i.i = icmp eq i64 %6, 0
  br i1 %.not.i.i.i, label %7, label %10

7:                                                ; preds = %3
  %8 = lshr i64 %5, 16
  %9 = and i64 %8, 15
  br label %rb_hash_size.exit

10:                                               ; preds = %3
  %11 = add i64 %0, 24
  %12 = inttoptr i64 %11 to ptr
  %13 = getelementptr inbounds nuw i8, ptr %12, i64 16
  %14 = load i64, ptr %13, align 8, !tbaa !49
  br label %rb_hash_size.exit

rb_hash_size.exit:                                ; preds = %7, %10
  %.0.i.i = phi i64 [ %9, %7 ], [ %14, %10 ]
  %15 = shl i64 %.0.i.i, 1
  %16 = or disjoint i64 %15, 1
  ret i64 %16
}